target datalayout = "e-m:e-p270:32:32-p271:32:32-p272:64:64-i64:64-i128:128-f80:128-n8:16:32:64-S128"
target triple = "x86_64-pc-linux-gnu"

%"class.icu_77::CollationFastLatinBuilder" = type <{ %"class.icu_77::UObject", i64, i64, [448 x [2 x i64]], %"class.icu_77::UVector64", %"class.icu_77::UVector64", ptr, [4 x i32], i32, i32, i32, i32, i8, [7 x i8], %"class.icu_77::UnicodeString", i32, [4 x i8] }>
%"class.icu_77::UObject" = type { ptr }
%"class.icu_77::UVector64" = type { %"class.icu_77::UObject", i32, i32, i32, ptr }
%"class.icu_77::UnicodeString" = type { %"class.icu_77::Replaceable", %"union.icu_77::UnicodeString::StackBufferOrFields" }
%"class.icu_77::Replaceable" = type { %"class.icu_77::UObject" }
%"union.icu_77::UnicodeString::StackBufferOrFields" = type { %struct.anon.0, [32 x i8] }
%struct.anon.0 = type { i16, i32, i32, ptr }

; Function Attrs: inlinehint mustprogress nounwind uwtable
define linkonce_odr void @_ZN6icu_7713UnicodeString14setShortLengthEi(ptr noundef nonnull align 8 dereferenceable(64) %0, i32 noundef %1) #1 comdat align 2 {
  %3 = alloca ptr, align 8
  %4 = alloca i32, align 4
  store ptr %0, ptr %3, align 8, !tbaa !31
  store i32 %1, ptr %4, align 4, !tbaa !38
  %5 = load ptr, ptr %3, align 8
  %6 = getelementptr inbounds nuw %"class.icu_77::UnicodeString", ptr %5, i32 0, i32 1
  %7 = getelementptr inbounds nuw %struct.anon.0, ptr %6, i32 0, i32 0
  %8 = load i16, ptr %7, align 8, !tbaa !33
  %9 = sext i16 %8 to i32
  %10 = and i32 %9, 31
  %11 = load i32, ptr %4, align 4, !tbaa !38
  %12 = shl i32 %11, 5
  %13 = or i32 %10, %12
  %14 = trunc i32 %13 to i16
  %15 = getelementptr inbounds nuw %"class.icu_77::UnicodeString", ptr %5, i32 0, i32 1
  %16 = getelementptr inbounds nuw %struct.anon.0, ptr %15, i32 0, i32 0
  store i16 %14, ptr %16, align 8, !tbaa !33
  ret void
}

; Function Attrs: inlinehint mustprogress nounwind uwtable
define linkonce_odr noundef i32 @_ZNK6icu_7713UnicodeString14getShortLengthEv(ptr noundef nonnull align 8 dereferenceable(64) %0) #1 comdat align 2 {
  %2 = alloca ptr, align 8
  store ptr %0, ptr %2, align 8, !tbaa !31
  %3 = load ptr, ptr %2, align 8
  %4 = getelementptr inbounds nuw %"class.icu_77::UnicodeString", ptr %3, i32 0, i32 1
  %5 = getelementptr inbounds nuw %struct.anon.0, ptr %4, i32 0, i32 0
  %6 = load i16, ptr %5, align 8, !tbaa !33
  %7 = sext i16 %6 to i32
  %8 = ashr i32 %7, 5
  ret i32 %8
}

; Function Attrs: inlinehint mustprogress nounwind uwtable
define linkonce_odr noundef signext i8 @_ZNK6icu_7713UnicodeString14hasShortLengthEv(ptr noundef nonnull align 8 dereferenceable(64) %0) #1 comdat align 2 {
  %2 = alloca ptr, align 8
  store ptr %0, ptr %2, align 8, !tbaa !31
  %3 = load ptr, ptr %2, align 8
  %4 = getelementptr inbounds nuw %"class.icu_77::UnicodeString", ptr %3, i32 0, i32 1
  %5 = getelementptr inbounds nuw %struct.anon.0, ptr %4, i32 0, i32 0
  %6 = load i16, ptr %5, align 8, !tbaa !33
  %7 = sext i16 %6 to i32
  %8 = icmp sge i32 %7, 0
  %9 = zext i1 %8 to i8
  ret i8 %9
}

; Function Attrs: inlinehint mustprogress uwtable
define linkonce_odr void @_ZN6icu_7713UnicodeString9setLengthEi(ptr noundef nonnull align 8 dereferenceable(64) %0, i32 noundef %1) #3 comdat align 2 {
  %3 = alloca ptr, align 8
  %4 = alloca i32, align 4
  store ptr %0, ptr %3, align 8, !tbaa !31
  store i32 %1, ptr %4, align 4, !tbaa !38
  %5 = load ptr, ptr %3, align 8
  %6 = load i32, ptr %4, align 4, !tbaa !38
  %7 = icmp sle i32 %6, 1023
  br i1 %7, label %8, label %10

8:                                                ; preds = %2
  %9 = load i32, ptr %4, align 4, !tbaa !38
  call void @_ZN6icu_7713UnicodeString14setShortLengthEi(ptr noundef nonnull align 8 dereferenceable(64) %5, i32 noundef %9)
  br label %20

10:                                               ; preds = %2
  %11 = getelementptr inbounds nuw %"class.icu_77::UnicodeString", ptr %5, i32 0, i32 1
  %12 = getelementptr inbounds nuw %struct.anon.0, ptr %11, i32 0, i32 0
  %13 = load i16, ptr %12, align 8, !tbaa !33
  %14 = sext i16 %13 to i32
  %15 = or i32 %14, 65504
  %16 = trunc i32 %15 to i16
  store i16 %16, ptr %12, align 8, !tbaa !33
  %17 = load i32, ptr %4, align 4, !tbaa !38
  %18 = getelementptr inbounds nuw %"class.icu_77::UnicodeString", ptr %5, i32 0, i32 1
  %19 = getelementptr inbounds nuw %struct.anon.0, ptr %18, i32 0, i32 1
  store i32 %17, ptr %19, align 4, !tbaa !33
  br label %20

20:                                               ; preds = %10, %8
  ret void
}

; Function Attrs: inlinehint mustprogress uwtable
define linkonce_odr noundef i32 @_ZNK6icu_7713UnicodeString6lengthEv(ptr noundef nonnull align 8 dereferenceable(64) %0) #3 comdat align 2 {
  %2 = alloca ptr, align 8
  store ptr %0, ptr %2, align 8, !tbaa !31
  %3 = load ptr, ptr %2, align 8
  %4 = call noundef signext i8 @_ZNK6icu_7713UnicodeString14hasShortLengthEv(ptr noundef nonnull align 8 dereferenceable(64) %3)
  %5 = icmp ne i8 %4, 0
  br i1 %5, label %6, label %8

6:                                                ; preds = %1
  %7 = call noundef i32 @_ZNK6icu_7713UnicodeString14getShortLengthEv(ptr noundef nonnull align 8 dereferenceable(64) %3)
  br label %12

8:                                                ; preds = %1
  %9 = getelementptr inbounds nuw %"class.icu_77::UnicodeString", ptr %3, i32 0, i32 1
  %10 = getelementptr inbounds nuw %struct.anon.0, ptr %9, i32 0, i32 1
  %11 = load i32, ptr %10, align 4, !tbaa !33
  br label %12

12:                                               ; preds = %8, %6
  %13 = phi i32 [ %7, %6 ], [ %11, %8 ]
  ret i32 %13
}

; Function Attrs: inlinehint mustprogress nounwind uwtable
define linkonce_odr noundef signext i8 @_ZNK6icu_7713UnicodeString7isBogusEv(ptr noundef nonnull align 8 dereferenceable(64) %0) #1 comdat align 2 {
  %2 = alloca ptr, align 8
  store ptr %0, ptr %2, align 8, !tbaa !31
  %3 = load ptr, ptr %2, align 8
  %4 = getelementptr inbounds nuw %"class.icu_77::UnicodeString", ptr %3, i32 0, i32 1
  %5 = getelementptr inbounds nuw %struct.anon.0, ptr %4, i32 0, i32 0
  %6 = load i16, ptr %5, align 8, !tbaa !33
  %7 = sext i16 %6 to i32
  %8 = and i32 %7, 1
  %9 = trunc i32 %8 to i8
  ret i8 %9
}

; Function Attrs: inlinehint mustprogress uwtable
define linkonce_odr noundef signext i8 @_ZN6icu_7713UnicodeString8truncateEi(ptr noundef nonnull align 8 dereferenceable(64) %0, i32 noundef %1) #3 comdat align 2 {
  %3 = alloca i8, align 1
  %4 = alloca ptr, align 8
  %5 = alloca i32, align 4
  store ptr %0, ptr %4, align 8, !tbaa !31
  store i32 %1, ptr %5, align 4, !tbaa !38
  %6 = load ptr, ptr %4, align 8
  %7 = call noundef signext i8 @_ZNK6icu_7713UnicodeString7isBogusEv(ptr noundef nonnull align 8 dereferenceable(64) %6)
  %8 = icmp ne i8 %7, 0
  br i1 %8, label %9, label %13

9:                                                ; preds = %2
  %10 = load i32, ptr %5, align 4, !tbaa !38
  %11 = icmp eq i32 %10, 0
  br i1 %11, label %12, label %13

12:                                               ; preds = %9
  call void @_ZN6icu_7713UnicodeString7unBogusEv(ptr noundef nonnull align 8 dereferenceable(64) %6)
  store i8 0, ptr %3, align 1
  br label %20

13:                                               ; preds = %9, %2
  %14 = load i32, ptr %5, align 4, !tbaa !38
  %15 = call noundef i32 @_ZNK6icu_7713UnicodeString6lengthEv(ptr noundef nonnull align 8 dereferenceable(64) %6)
  %16 = icmp ult i32 %14, %15
  br i1 %16, label %17, label %19

17:                                               ; preds = %13
  %18 = load i32, ptr %5, align 4, !tbaa !38
  call void @_ZN6icu_7713UnicodeString9setLengthEi(ptr noundef nonnull align 8 dereferenceable(64) %6, i32 noundef %18)
  store i8 1, ptr %3, align 1
  br label %20

19:                                               ; preds = %13
  store i8 0, ptr %3, align 1
  br label %20

20:                                               ; preds = %19, %17, %12
  %21 = load i8, ptr %3, align 1
  ret i8 %21
}

; Function Attrs: mustprogress uwtable
define void @_ZN6icu_7725CollationFastLatinBuilder8resetCEsEv(ptr noundef nonnull align 8 dereferenceable(7372) %0) #0 align 2 {
  %2 = alloca ptr, align 8
  store ptr %0, ptr %2, align 8, !tbaa !3
  %3 = load ptr, ptr %2, align 8
  %4 = getelementptr inbounds nuw %"class.icu_77::CollationFastLatinBuilder", ptr %3, i32 0, i32 4
  call void @_ZN6icu_779UVector6417removeAllElementsEv(ptr noundef nonnull align 8 dereferenceable(32) %4)
  %5 = getelementptr inbounds nuw %"class.icu_77::CollationFastLatinBuilder", ptr %3, i32 0, i32 5
  call void @_ZN6icu_779UVector6417removeAllElementsEv(ptr noundef nonnull align 8 dereferenceable(32) %5)
  %6 = getelementptr inbounds nuw %"class.icu_77::CollationFastLatinBuilder", ptr %3, i32 0, i32 12
  store i8 0, ptr %6, align 8, !tbaa !27
  %7 = getelementptr inbounds nuw %"class.icu_77::CollationFastLatinBuilder", ptr %3, i32 0, i32 14
  %8 = getelementptr inbounds nuw %"class.icu_77::CollationFastLatinBuilder", ptr %3, i32 0, i32 15
  %9 = load i32, ptr %8, align 8, !tbaa !28
  %10 = call noundef signext i8 @_ZN6icu_7713UnicodeString8truncateEi(ptr noundef nonnull align 8 dereferenceable(64) %7, i32 noundef %9)
  ret void
}

; Function Attrs: inlinehint mustprogress nounwind uwtable
define linkonce_odr noundef signext i8 @_ZNK6icu_7713UnicodeString7isEmptyEv(ptr noundef nonnull align 8 dereferenceable(64) %0) #1 comdat align 2 {
  %2 = alloca ptr, align 8
  store ptr %0, ptr %2, align 8, !tbaa !31
  %3 = load ptr, ptr %2, align 8
  %4 = getelementptr inbounds nuw %"class.icu_77::UnicodeString", ptr %3, i32 0, i32 1
  %5 = getelementptr inbounds nuw %struct.anon.0, ptr %4, i32 0, i32 0
  %6 = load i16, ptr %5, align 8, !tbaa !33
  %7 = sext i16 %6 to i32
  %8 = ashr i32 %7, 5
  %9 = icmp eq i32 %8, 0
  %10 = zext i1 %9 to i8
  ret i8 %10
}

; Function Attrs: inlinehint mustprogress nounwind uwtable
define internal noundef signext i8 @_ZL9U_FAILURE10UErrorCode(i32 noundef %0) #1 {
  %2 = alloca i32, align 4
  store i32 %0, ptr %2, align 4, !tbaa !36
  %3 = load i32, ptr %2, align 4, !tbaa !36
  %4 = icmp sgt i32 %3, 0
  %5 = zext i1 %4 to i8
  ret i8 %5
}

; Function Attrs: mustprogress uwtable
define noundef signext i8 @_ZN6icu_7725CollationFastLatinBuilder7forDataERKNS_13CollationDataER10UErrorCode(ptr noundef nonnull align 8 dereferenceable(7372) %0, ptr noundef nonnull align 8 dereferenceable(140) %1, ptr noundef nonnull align 4 dereferenceable(4) %2) #0 align 2 {
  %4 = alloca i8, align 1
  %5 = alloca ptr, align 8
  %6 = alloca ptr, align 8
  %7 = alloca ptr, align 8
  %8 = alloca i8, align 1
  store ptr %0, ptr %5, align 8, !tbaa !3
  store ptr %1, ptr %6, align 8, !tbaa !34
  store ptr %2, ptr %7, align 8, !tbaa !8
  %9 = load ptr, ptr %5, align 8
  %10 = load ptr, ptr %7, align 8, !tbaa !8
  %11 = load i32, ptr %10, align 4, !tbaa !36
  %12 = call noundef signext i8 @_ZL9U_FAILURE10UErrorCode(i32 noundef %11)
  %13 = icmp ne i8 %12, 0
  br i1 %13, label %14, label %15

14:                                               ; preds = %3
  store i8 0, ptr %4, align 1
  br label %70

15:                                               ; preds = %3
  %16 = getelementptr inbounds nuw %"class.icu_77::CollationFastLatinBuilder", ptr %9, i32 0, i32 14
  %17 = call noundef signext i8 @_ZNK6icu_7713UnicodeString7isEmptyEv(ptr noundef nonnull align 8 dereferenceable(64) %16)
  %18 = icmp ne i8 %17, 0
  br i1 %18, label %21, label %19

19:                                               ; preds = %15
  %20 = load ptr, ptr %7, align 8, !tbaa !8
  store i32 27, ptr %20, align 4, !tbaa !36
  store i8 0, ptr %4, align 1
  br label %70

21:                                               ; preds = %15
  %22 = load ptr, ptr %6, align 8, !tbaa !34
  %23 = load ptr, ptr %7, align 8, !tbaa !8
  %24 = call noundef signext i8 @_ZN6icu_7725CollationFastLatinBuilder10loadGroupsERKNS_13CollationDataER10UErrorCode(ptr noundef nonnull align 8 dereferenceable(7372) %9, ptr noundef nonnull align 8 dereferenceable(140) %22, ptr noundef nonnull align 4 dereferenceable(4) %23)
  %25 = icmp ne i8 %24, 0
  br i1 %25, label %27, label %26

26:                                               ; preds = %21
  store i8 0, ptr %4, align 1
  br label %70

27:                                               ; preds = %21
  %28 = getelementptr inbounds nuw %"class.icu_77::CollationFastLatinBuilder", ptr %9, i32 0, i32 8
  %29 = load i32, ptr %28, align 8, !tbaa !23
  %30 = getelementptr inbounds nuw %"class.icu_77::CollationFastLatinBuilder", ptr %9, i32 0, i32 11
  store i32 %29, ptr %30, align 4, !tbaa !26
  %31 = load ptr, ptr %6, align 8, !tbaa !34
  %32 = load ptr, ptr %7, align 8, !tbaa !8
  call void @_ZN6icu_7725CollationFastLatinBuilder6getCEsERKNS_13CollationDataER10UErrorCode(ptr noundef nonnull align 8 dereferenceable(7372) %9, ptr noundef nonnull align 8 dereferenceable(140) %31, ptr noundef nonnull align 4 dereferenceable(4) %32)
  %33 = load ptr, ptr %7, align 8, !tbaa !8
  %34 = call noundef signext i8 @_ZN6icu_7725CollationFastLatinBuilder15encodeUniqueCEsER10UErrorCode(ptr noundef nonnull align 8 dereferenceable(7372) %9, ptr noundef nonnull align 4 dereferenceable(4) %33)
  %35 = icmp ne i8 %34, 0
  br i1 %35, label %37, label %36

36:                                               ; preds = %27
  store i8 0, ptr %4, align 1
  br label %70

37:                                               ; preds = %27
  %38 = getelementptr inbounds nuw %"class.icu_77::CollationFastLatinBuilder", ptr %9, i32 0, i32 12
  %39 = load i8, ptr %38, align 8, !tbaa !27
  %40 = icmp ne i8 %39, 0
  br i1 %40, label %41, label %52

41:                                               ; preds = %37
  %42 = getelementptr inbounds nuw %"class.icu_77::CollationFastLatinBuilder", ptr %9, i32 0, i32 9
  %43 = load i32, ptr %42, align 4, !tbaa !24
  %44 = getelementptr inbounds nuw %"class.icu_77::CollationFastLatinBuilder", ptr %9, i32 0, i32 11
  store i32 %43, ptr %44, align 4, !tbaa !26
  call void @_ZN6icu_7725CollationFastLatinBuilder8resetCEsEv(ptr noundef nonnull align 8 dereferenceable(7372) %9)
  %45 = load ptr, ptr %6, align 8, !tbaa !34
  %46 = load ptr, ptr %7, align 8, !tbaa !8
  call void @_ZN6icu_7725CollationFastLatinBuilder6getCEsERKNS_13CollationDataER10UErrorCode(ptr noundef nonnull align 8 dereferenceable(7372) %9, ptr noundef nonnull align 8 dereferenceable(140) %45, ptr noundef nonnull align 4 dereferenceable(4) %46)
  %47 = load ptr, ptr %7, align 8, !tbaa !8
  %48 = call noundef signext i8 @_ZN6icu_7725CollationFastLatinBuilder15encodeUniqueCEsER10UErrorCode(ptr noundef nonnull align 8 dereferenceable(7372) %9, ptr noundef nonnull align 4 dereferenceable(4) %47)
  %49 = icmp ne i8 %48, 0
  br i1 %49, label %51, label %50

50:                                               ; preds = %41
  store i8 0, ptr %4, align 1
  br label %70

51:                                               ; preds = %41
  br label %52

52:                                               ; preds = %51, %37
  call void @llvm.lifetime.start.p0(i64 1, ptr %8) #9
  %53 = getelementptr inbounds nuw %"class.icu_77::CollationFastLatinBuilder", ptr %9, i32 0, i32 12
  %54 = load i8, ptr %53, align 8, !tbaa !27
  %55 = icmp ne i8 %54, 0
  br i1 %55, label %64, label %56

56:                                               ; preds = %52
  %57 = load ptr, ptr %7, align 8, !tbaa !8
  %58 = call noundef signext i8 @_ZN6icu_7725CollationFastLatinBuilder13encodeCharCEsER10UErrorCode(ptr noundef nonnull align 8 dereferenceable(7372) %9, ptr noundef nonnull align 4 dereferenceable(4) %57)
  %59 = icmp ne i8 %58, 0
  br i1 %59, label %60, label %64

60:                                               ; preds = %56
  %61 = load ptr, ptr %7, align 8, !tbaa !8
  %62 = call noundef signext i8 @_ZN6icu_7725CollationFastLatinBuilder18encodeContractionsER10UErrorCode(ptr noundef nonnull align 8 dereferenceable(7372) %9, ptr noundef nonnull align 4 dereferenceable(4) %61)
  %63 = icmp ne i8 %62, 0
  br label %64

64:                                               ; preds = %60, %56, %52
  %65 = phi i1 [ false, %56 ], [ false, %52 ], [ %63, %60 ]
  %66 = zext i1 %65 to i8
  store i8 %66, ptr %8, align 1, !tbaa !33
  %67 = getelementptr inbounds nuw %"class.icu_77::CollationFastLatinBuilder", ptr %9, i32 0, i32 4
  call void @_ZN6icu_779UVector6417removeAllElementsEv(ptr noundef nonnull align 8 dereferenceable(32) %67)
  %68 = getelementptr inbounds nuw %"class.icu_77::CollationFastLatinBuilder", ptr %9, i32 0, i32 5
  call void @_ZN6icu_779UVector6417removeAllElementsEv(ptr noundef nonnull align 8 dereferenceable(32) %68)
  %69 = load i8, ptr %8, align 1, !tbaa !33
  store i8 %69, ptr %4, align 1
  call void @llvm.lifetime.end.p0(i64 1, ptr %8) #9
  br label %70

70:                                               ; preds = %64, %50, %36, %26, %19, %14
  %71 = load i8, ptr %4, align 1
  ret i8 %71
}