; Function Attrs: mustprogress uwtable
define noundef signext range(i8 0, 2) i8 @_ZN6icu_7725CollationFastLatinBuilder7forDataERKNS_13CollationDataER10UErrorCode(ptr noundef nonnull align 8 dereferenceable(7372) %0, ptr noundef nonnull align 8 dereferenceable(140) %1, ptr noundef nonnull align 4 dereferenceable(4) %2) local_unnamed_addr #0 align 2 {
  %4 = load i32, ptr %2, align 4, !tbaa !20
  %5 = icmp slt i32 %4, 1
  br i1 %5, label %6, label %59

6:                                                ; preds = %3
  %7 = getelementptr inbounds nuw i8, ptr %0, i64 7304
  %8 = getelementptr inbounds nuw i8, ptr %0, i64 7312
  %9 = load i16, ptr %8, align 8, !tbaa !18
  %10 = icmp ugt i16 %9, 31
  br i1 %10, label %11, label %12

11:                                               ; preds = %6
  store i32 27, ptr %2, align 4, !tbaa !20
  br label %59

12:                                               ; preds = %6
  %13 = tail call noundef signext i8 @_ZN6icu_7725CollationFastLatinBuilder10loadGroupsERKNS_13CollationDataER10UErrorCode(ptr noundef nonnull align 8 dereferenceable(7372) %0, ptr noundef nonnull align 8 dereferenceable(140) %1, ptr noundef nonnull align 4 dereferenceable(4) %2)
  %.not15 = icmp eq i8 %13, 0
  br i1 %.not15, label %59, label %14

14:                                               ; preds = %12
  %15 = getelementptr inbounds nuw i8, ptr %0, i64 7280
  %16 = load i32, ptr %15, align 8, !tbaa !22
  %17 = getelementptr inbounds nuw i8, ptr %0, i64 7292
  store i32 %16, ptr %17, align 4, !tbaa !23
  tail call void @_ZN6icu_7725CollationFastLatinBuilder6getCEsERKNS_13CollationDataER10UErrorCode(ptr noundef nonnull align 8 dereferenceable(7372) %0, ptr noundef nonnull align 8 dereferenceable(140) %1, ptr noundef nonnull align 4 dereferenceable(4) %2)
  %18 = tail call noundef signext i8 @_ZN6icu_7725CollationFastLatinBuilder15encodeUniqueCEsER10UErrorCode(ptr noundef nonnull align 8 dereferenceable(7372) %0, ptr noundef nonnull align 4 dereferenceable(4) %2)
  %.not16 = icmp eq i8 %18, 0
  br i1 %.not16, label %59, label %19

19:                                               ; preds = %14
  %20 = getelementptr inbounds nuw i8, ptr %0, i64 7296
  %21 = load i8, ptr %20, align 8, !tbaa !24
  %.not17 = icmp eq i8 %21, 0
  br i1 %.not17, label %.thread, label %22

22:                                               ; preds = %19
  %23 = getelementptr inbounds nuw i8, ptr %0, i64 7284
  %24 = load i32, ptr %23, align 4, !tbaa !25
  store i32 %24, ptr %17, align 4, !tbaa !23
  %25 = getelementptr inbounds nuw i8, ptr %0, i64 7192
  tail call void @_ZN6icu_779UVector6417removeAllElementsEv(ptr noundef nonnull align 8 dereferenceable(32) %25)
  %26 = getelementptr inbounds nuw i8, ptr %0, i64 7224
  tail call void @_ZN6icu_779UVector6417removeAllElementsEv(ptr noundef nonnull align 8 dereferenceable(32) %26)
  store i8 0, ptr %20, align 8, !tbaa !24
  %27 = getelementptr inbounds nuw i8, ptr %0, i64 7368
  %28 = load i32, ptr %27, align 8, !tbaa !19
  %29 = load i16, ptr %8, align 8, !tbaa !18
  %30 = and i16 %29, 1
  %31 = icmp ne i16 %30, 0
  %32 = icmp eq i32 %28, 0
  %or.cond.i.i = and i1 %32, %31
  br i1 %or.cond.i.i, label %33, label %34

33:                                               ; preds = %22
  tail call void @_ZN6icu_7713UnicodeString7unBogusEv(ptr noundef nonnull align 8 dereferenceable(64) %7)
  br label %_ZN6icu_7725CollationFastLatinBuilder8resetCEsEv.exit

34:                                               ; preds = %22
  %35 = icmp slt i16 %29, 0
  %36 = ashr i16 %29, 5
  %37 = sext i16 %36 to i32
  %38 = getelementptr inbounds nuw i8, ptr %0, i64 7316
  %39 = load i32, ptr %38, align 4
  %40 = select i1 %35, i32 %39, i32 %37
  %41 = icmp ult i32 %28, %40
  br i1 %41, label %42, label %_ZN6icu_7725CollationFastLatinBuilder8resetCEsEv.exit

42:                                               ; preds = %34
  %43 = icmp slt i32 %28, 1024
  br i1 %43, label %44, label %48

44:                                               ; preds = %42
  %45 = and i16 %29, 31
  %.tr.i.i.i.i = trunc i32 %28 to i16
  %46 = shl i16 %.tr.i.i.i.i, 5
  %47 = or disjoint i16 %45, %46
  store i16 %47, ptr %8, align 8, !tbaa !18
  br label %_ZN6icu_7725CollationFastLatinBuilder8resetCEsEv.exit

48:                                               ; preds = %42
  %49 = or i16 %29, -32
  store i16 %49, ptr %8, align 8, !tbaa !18
  store i32 %28, ptr %38, align 4, !tbaa !18
  br label %_ZN6icu_7725CollationFastLatinBuilder8resetCEsEv.exit

_ZN6icu_7725CollationFastLatinBuilder8resetCEsEv.exit: ; preds = %33, %34, %44, %48
  tail call void @_ZN6icu_7725CollationFastLatinBuilder6getCEsERKNS_13CollationDataER10UErrorCode(ptr noundef nonnull align 8 dereferenceable(7372) %0, ptr noundef nonnull align 8 dereferenceable(140) %1, ptr noundef nonnull align 4 dereferenceable(4) %2)
  %50 = tail call noundef signext i8 @_ZN6icu_7725CollationFastLatinBuilder15encodeUniqueCEsER10UErrorCode(ptr noundef nonnull align 8 dereferenceable(7372) %0, ptr noundef nonnull align 4 dereferenceable(4) %2)
  %.not18 = icmp eq i8 %50, 0
  br i1 %.not18, label %59, label %51

51:                                               ; preds = %_ZN6icu_7725CollationFastLatinBuilder8resetCEsEv.exit
  %.pr = load i8, ptr %20, align 8, !tbaa !24
  %.not19 = icmp eq i8 %.pr, 0
  br i1 %.not19, label %.thread, label %55

.thread:                                          ; preds = %19, %51
  %52 = tail call noundef signext i8 @_ZN6icu_7725CollationFastLatinBuilder13encodeCharCEsER10UErrorCode(ptr noundef nonnull align 8 dereferenceable(7372) %0, ptr noundef nonnull align 4 dereferenceable(4) %2)
  %.not20 = icmp eq i8 %52, 0
  br i1 %.not20, label %55, label %53

53:                                               ; preds = %.thread
  %54 = tail call noundef signext i8 @_ZN6icu_7725CollationFastLatinBuilder18encodeContractionsER10UErrorCode(ptr noundef nonnull align 8 dereferenceable(7372) %0, ptr noundef nonnull align 4 dereferenceable(4) %2)
  br label %55

55:                                               ; preds = %53, %.thread, %51
  %56 = phi i8 [ 0, %.thread ], [ 0, %51 ], [ %54, %53 ]
  %57 = getelementptr inbounds nuw i8, ptr %0, i64 7192
  tail call void @_ZN6icu_779UVector6417removeAllElementsEv(ptr noundef nonnull align 8 dereferenceable(32) %57)
  %58 = getelementptr inbounds nuw i8, ptr %0, i64 7224
  tail call void @_ZN6icu_779UVector6417removeAllElementsEv(ptr noundef nonnull align 8 dereferenceable(32) %58)
  br label %59

59:                                               ; preds = %_ZN6icu_7725CollationFastLatinBuilder8resetCEsEv.exit, %14, %12, %3, %55, %11
  %.0 = phi i8 [ %56, %55 ], [ 0, %11 ], [ 0, %3 ], [ 0, %12 ], [ 0, %14 ], [ 0, %_ZN6icu_7725CollationFastLatinBuilder8resetCEsEv.exit ]
  ret i8 %.0
}